target datalayout = "e-m:e-p270:32:32-p271:32:32-p272:64:64-i64:64-i128:128-f80:128-n8:16:32:64-S128"
target triple = "x86_64-pc-linux-gnu"

%"class.clang::SourceLocation" = type { i32 }
%"class.clang::VirtSpecifiers" = type { i32, i32, %"class.clang::SourceLocation", %"class.clang::SourceLocation", %"class.clang::SourceLocation", %"class.clang::SourceLocation", %"class.clang::SourceLocation" }

@.str.110 = private unnamed_addr constant [9 x i8] c"override\00", align 1
@.str.111 = private unnamed_addr constant [6 x i8] c"final\00", align 1
@.str.112 = private unnamed_addr constant [8 x i8] c"__final\00", align 1
@.str.113 = private unnamed_addr constant [7 x i8] c"sealed\00", align 1
@.str.114 = private unnamed_addr constant [9 x i8] c"abstract\00", align 1

; Function Attrs: mustprogress nounwind uwtable
define dso_local noundef ptr @_ZN5clang14VirtSpecifiers16getSpecifierNameENS0_9SpecifierE(i32 noundef %0) #0 align 2 {
  %2 = alloca ptr, align 8
  %3 = alloca i32, align 4
  store i32 %0, ptr %3, align 4
  %4 = load i32, ptr %3, align 4
  switch i32 %4, label %5 [
    i32 1, label %6
    i32 2, label %7
    i32 8, label %8
    i32 4, label %9
    i32 16, label %10
  ]

5:                                                ; preds = %1
  unreachable

6:                                                ; preds = %1
  store ptr @.str.110, ptr %2, align 8
  br label %11

7:                                                ; preds = %1
  store ptr @.str.111, ptr %2, align 8
  br label %11

8:                                                ; preds = %1
  store ptr @.str.112, ptr %2, align 8
  br label %11

9:                                                ; preds = %1
  store ptr @.str.113, ptr %2, align 8
  br label %11

10:                                               ; preds = %1
  store ptr @.str.114, ptr %2, align 8
  br label %11

11:                                               ; preds = %10, %9, %8, %7, %6
  %12 = load ptr, ptr %2, align 8
  ret ptr %12
}

; Function Attrs: mustprogress nounwind uwtable
define linkonce_odr hidden noundef zeroext i1 @_ZNK5clang14SourceLocation7isValidEv(ptr noundef nonnull align 4 dereferenceable(4) %0) #0 comdat align 2 {
  %2 = alloca ptr, align 8
  store ptr %0, ptr %2, align 8
  %3 = load ptr, ptr %2, align 8
  %4 = getelementptr inbounds nuw %"class.clang::SourceLocation", ptr %3, i32 0, i32 0
  %5 = load i32, ptr %4, align 4
  %6 = icmp ne i32 %5, 0
  ret i1 %6
}

; Function Attrs: mustprogress nounwind uwtable
define dso_local noundef zeroext i1 @_ZN5clang14VirtSpecifiers12SetSpecifierENS0_9SpecifierENS_14SourceLocationERPKc(ptr noundef nonnull align 4 dereferenceable(28) %0, i32 noundef %1, i32 %2, ptr noundef nonnull align 8 dereferenceable(8) %3) #0 align 2 {
  %5 = alloca i1, align 1
  %6 = alloca %"class.clang::SourceLocation", align 4
  %7 = alloca ptr, align 8
  %8 = alloca i32, align 4
  %9 = alloca ptr, align 8
  %10 = getelementptr inbounds nuw %"class.clang::SourceLocation", ptr %6, i32 0, i32 0
  store i32 %2, ptr %10, align 4
  store ptr %0, ptr %7, align 8
  store i32 %1, ptr %8, align 4
  store ptr %3, ptr %9, align 8
  %11 = load ptr, ptr %7, align 8
  %12 = getelementptr inbounds nuw %"class.clang::VirtSpecifiers", ptr %11, i32 0, i32 5
  %13 = call noundef zeroext i1 @_ZNK5clang14SourceLocation7isValidEv(ptr noundef nonnull align 4 dereferenceable(4) %12)
  br i1 %13, label %16, label %14

14:                                               ; preds = %4
  %15 = getelementptr inbounds nuw %"class.clang::VirtSpecifiers", ptr %11, i32 0, i32 5
  call void @llvm.memcpy.p0.p0.i64(ptr align 4 %15, ptr align 4 %6, i64 4, i1 false)
  br label %16

16:                                               ; preds = %14, %4
  %17 = getelementptr inbounds nuw %"class.clang::VirtSpecifiers", ptr %11, i32 0, i32 6
  call void @llvm.memcpy.p0.p0.i64(ptr align 4 %17, ptr align 4 %6, i64 4, i1 false)
  %18 = load i32, ptr %8, align 4
  %19 = getelementptr inbounds nuw %"class.clang::VirtSpecifiers", ptr %11, i32 0, i32 1
  store i32 %18, ptr %19, align 4
  %20 = getelementptr inbounds nuw %"class.clang::VirtSpecifiers", ptr %11, i32 0, i32 0
  %21 = load i32, ptr %20, align 4
  %22 = load i32, ptr %8, align 4
  %23 = and i32 %21, %22
  %24 = icmp ne i32 %23, 0
  br i1 %24, label %25, label %29

25:                                               ; preds = %16
  %26 = load i32, ptr %8, align 4
  %27 = call noundef ptr @_ZN5clang14VirtSpecifiers16getSpecifierNameENS0_9SpecifierE(i32 noundef %26)
  %28 = load ptr, ptr %9, align 8
  store ptr %27, ptr %28, align 8
  store i1 true, ptr %5, align 1
  br label %43

29:                                               ; preds = %16
  %30 = load i32, ptr %8, align 4
  %31 = getelementptr inbounds nuw %"class.clang::VirtSpecifiers", ptr %11, i32 0, i32 0
  %32 = load i32, ptr %31, align 4
  %33 = or i32 %32, %30
  store i32 %33, ptr %31, align 4
  %34 = load i32, ptr %8, align 4
  switch i32 %34, label %35 [
    i32 1, label %36
    i32 8, label %38
    i32 4, label %38
    i32 2, label %38
    i32 16, label %40
  ]

35:                                               ; preds = %29
  unreachable

36:                                               ; preds = %29
  %37 = getelementptr inbounds nuw %"class.clang::VirtSpecifiers", ptr %11, i32 0, i32 2
  call void @llvm.memcpy.p0.p0.i64(ptr align 4 %37, ptr align 4 %6, i64 4, i1 false)
  br label %42

38:                                               ; preds = %29, %29, %29
  %39 = getelementptr inbounds nuw %"class.clang::VirtSpecifiers", ptr %11, i32 0, i32 3
  call void @llvm.memcpy.p0.p0.i64(ptr align 4 %39, ptr align 4 %6, i64 4, i1 false)
  br label %42

40:                                               ; preds = %29
  %41 = getelementptr inbounds nuw %"class.clang::VirtSpecifiers", ptr %11, i32 0, i32 4
  call void @llvm.memcpy.p0.p0.i64(ptr align 4 %41, ptr align 4 %6, i64 4, i1 false)
  br label %42

42:                                               ; preds = %40, %38, %36
  store i1 false, ptr %5, align 1
  br label %43

43:                                               ; preds = %42, %25
  %44 = load i1, ptr %5, align 1
  ret i1 %44
}