; Function Attrs: mustprogress nofree norecurse nosync nounwind willreturn memory(argmem: readwrite) uwtable
define dso_local noundef zeroext i1 @_ZN5clang14VirtSpecifiers12SetSpecifierENS0_9SpecifierENS_14SourceLocationERPKc(ptr nocapture noundef nonnull align 4 dereferenceable(28) %0, i32 noundef %1, i32 %2, ptr nocapture noundef nonnull writeonly align 8 dereferenceable(8) %3) local_unnamed_addr #0 align 2 {
  %5 = getelementptr inbounds nuw i8, ptr %0, i64 20
  %6 = load i32, ptr %5, align 4
  %.not11 = icmp eq i32 %6, 0
  br i1 %.not11, label %7, label %8

7:                                                ; preds = %4
  store i32 %2, ptr %5, align 4
  br label %8

8:                                                ; preds = %7, %4
  %9 = getelementptr inbounds nuw i8, ptr %0, i64 24
  store i32 %2, ptr %9, align 4
  %10 = getelementptr inbounds nuw i8, ptr %0, i64 4
  store i32 %1, ptr %10, align 4
  %11 = load i32, ptr %0, align 4
  %12 = and i32 %11, %1
  %.not = icmp ne i32 %12, 0
  br i1 %.not, label %13, label %19

13:                                               ; preds = %8
  switch i32 %1, label %14 [
    i32 1, label %_ZN5clang14VirtSpecifiers16getSpecifierNameENS0_9SpecifierE.exit
    i32 2, label %15
    i32 8, label %16
    i32 4, label %17
    i32 16, label %18
  ]

14:                                               ; preds = %13
  unreachable

15:                                               ; preds = %13
  br label %_ZN5clang14VirtSpecifiers16getSpecifierNameENS0_9SpecifierE.exit

16:                                               ; preds = %13
  br label %_ZN5clang14VirtSpecifiers16getSpecifierNameENS0_9SpecifierE.exit

17:                                               ; preds = %13
  br label %_ZN5clang14VirtSpecifiers16getSpecifierNameENS0_9SpecifierE.exit

18:                                               ; preds = %13
  br label %_ZN5clang14VirtSpecifiers16getSpecifierNameENS0_9SpecifierE.exit

_ZN5clang14VirtSpecifiers16getSpecifierNameENS0_9SpecifierE.exit: ; preds = %13, %15, %16, %17, %18
  %.0.i = phi ptr [ @.str.114, %18 ], [ @.str.113, %17 ], [ @.str.112, %16 ], [ @.str.111, %15 ], [ @.str.110, %13 ]
  store ptr %.0.i, ptr %3, align 8
  br label %28

19:                                               ; preds = %8
  %20 = or i32 %11, %1
  store i32 %20, ptr %0, align 4
  switch i32 %1, label %21 [
    i32 1, label %22
    i32 8, label %24
    i32 4, label %24
    i32 2, label %24
    i32 16, label %26
  ]

21:                                               ; preds = %19
  unreachable

22:                                               ; preds = %19
  %23 = getelementptr inbounds nuw i8, ptr %0, i64 8
  store i32 %2, ptr %23, align 4
  br label %28

24:                                               ; preds = %19, %19, %19
  %25 = getelementptr inbounds nuw i8, ptr %0, i64 12
  store i32 %2, ptr %25, align 4
  br label %28

26:                                               ; preds = %19
  %27 = getelementptr inbounds nuw i8, ptr %0, i64 16
  store i32 %2, ptr %27, align 4
  br label %28

28:                                               ; preds = %22, %24, %26, %_ZN5clang14VirtSpecifiers16getSpecifierNameENS0_9SpecifierE.exit
  ret i1 %.not
}